; Function Attrs: nounwind sspstrong uwtable
define dso_local noundef zeroext i1 @visit_type_AudiodevAlsaPerDirectionOptions_members(ptr noundef %v, ptr noundef %obj, ptr noundef %errp) local_unnamed_addr #0 {
entry:
  %has_dev = alloca i8, align 1
  %dev = getelementptr inbounds nuw i8, ptr %obj, i64 48
  %0 = load ptr, ptr %dev, align 8
  %tobool = icmp ne ptr %0, null
  %frombool = zext i1 %tobool to i8
  store i8 %frombool, ptr %has_dev, align 1
  %call = tail call zeroext i1 @visit_type_AudiodevPerDirectionOptions_members(ptr noundef %v, ptr noundef %obj, ptr noundef %errp)
  br i1 %call, label %if.end, label %return

if.end:                                           ; preds = %entry
  %call2 = call zeroext i1 @visit_optional(ptr noundef %v, ptr noundef nonnull @.str.11, ptr noundef nonnull %has_dev) #5
  br i1 %call2, label %if.then3, label %if.end8

if.then3:                                         ; preds = %if.end
  %call5 = call zeroext i1 @visit_type_str(ptr noundef %v, ptr noundef nonnull @.str.11, ptr noundef nonnull %dev, ptr noundef %errp) #5
  br i1 %call5, label %if.end8, label %return

if.end8:                                          ; preds = %if.then3, %if.end
  %has_period_length = getelementptr inbounds nuw i8, ptr %obj, i64 56
  %call9 = call zeroext i1 @visit_optional(ptr noundef %v, ptr noundef nonnull @.str.12, ptr noundef nonnull %has_period_length) #5
  br i1 %call9, label %if.then10, label %if.end14

if.then10:                                        ; preds = %if.end8
  %period_length = getelementptr inbounds nuw i8, ptr %obj, i64 60
  %call11 = call zeroext i1 @visit_type_uint32(ptr noundef %v, ptr noundef nonnull @.str.12, ptr noundef nonnull %period_length, ptr noundef %errp) #5
  br i1 %call11, label %if.end14, label %return

if.end14:                                         ; preds = %if.then10, %if.end8
  %has_try_poll = getelementptr inbounds nuw i8, ptr %obj, i64 64
  %call15 = call zeroext i1 @visit_optional(ptr noundef %v, ptr noundef nonnull @.str.13, ptr noundef nonnull %has_try_poll) #5
  br i1 %call15, label %if.then16, label %if.end20

if.then16:                                        ; preds = %if.end14
  %try_poll = getelementptr inbounds nuw i8, ptr %obj, i64 65
  %call17 = call zeroext i1 @visit_type_bool(ptr noundef %v, ptr noundef nonnull @.str.13, ptr noundef nonnull %try_poll, ptr noundef %errp) #5
  br i1 %call17, label %if.end20, label %return

if.end20:                                         ; preds = %if.then16, %if.end14
  br label %return

return:                                           ; preds = %if.then16, %if.then10, %if.then3, %entry, %if.end20
  %retval.0 = phi i1 [ true, %if.end20 ], [ false, %entry ], [ false, %if.then3 ], [ false, %if.then10 ], [ false, %if.then16 ]
  ret i1 %retval.0
}